target datalayout = "e-m:e-p270:32:32-p271:32:32-p272:64:64-i64:64-i128:128-f80:128-n8:16:32:64-S128"
target triple = "x86_64-pc-linux-gnu"

%"struct.duckdb_zstd::ZSTD_customMem" = type { ptr, ptr, ptr }
%"struct.duckdb_zstd::ZSTD_frameParameters" = type { i32, i32, i32 }
%"struct.duckdb_zstd::ZSTD_compressionParameters" = type { i32, i32, i32, i32, i32, i32, i32 }
%"struct.duckdb_zstd::ZSTD_CCtx_s" = type { i32, i32, i32, %"struct.duckdb_zstd::ZSTD_CCtx_params_s", %"struct.duckdb_zstd::ZSTD_CCtx_params_s", %"struct.duckdb_zstd::ZSTD_CCtx_params_s", i32, i64, %"struct.duckdb_zstd::ZSTD_cwksp", i64, i64, i64, i64, %"struct.duckdb_zstd::XXH64_state_s", %"struct.duckdb_zstd::ZSTD_customMem", ptr, i64, %"struct.duckdb_zstd::SeqCollector", i32, i32, %"struct.duckdb_zstd::seqStore_t", %"struct.duckdb_zstd::ldmState_t", ptr, i64, %"struct.duckdb_zstd::rawSeqStore_t", %"struct.duckdb_zstd::ZSTD_blockState_t", ptr, i32, ptr, i64, i64, i64, i64, ptr, i64, i64, i64, i32, i32, %"struct.duckdb_zstd::ZSTD_inBuffer_s", i64, i64, %"struct.duckdb_zstd::ZSTD_localDict", ptr, %"struct.duckdb_zstd::ZSTD_prefixDict_s", i64, %"struct.duckdb_zstd::ZSTD_blockSplitCtx", ptr, i64 }
%"struct.duckdb_zstd::ZSTD_CCtx_params_s" = type { i32, %"struct.duckdb_zstd::ZSTD_compressionParameters", %"struct.duckdb_zstd::ZSTD_frameParameters", i32, i32, i64, i32, i32, i32, i32, i64, i32, i32, %"struct.duckdb_zstd::ldmParams_t", i32, i32, i32, i32, i32, i32, i32, i32, %"struct.duckdb_zstd::ZSTD_customMem", i32, i32, ptr, ptr, i64, i32 }
%"struct.duckdb_zstd::ldmParams_t" = type { i32, i32, i32, i32, i32, i32 }
%"struct.duckdb_zstd::ZSTD_cwksp" = type { ptr, ptr, ptr, ptr, ptr, ptr, ptr, i8, i32, i32, i32 }
%"struct.duckdb_zstd::XXH64_state_s" = type { i64, i64, i64, i64, i64, [4 x i64], i32, [2 x i32] }
%"struct.duckdb_zstd::SeqCollector" = type { i32, ptr, i64, i64 }
%"struct.duckdb_zstd::seqStore_t" = type { ptr, ptr, ptr, ptr, ptr, ptr, ptr, i64, i64, i32, i32 }
%"struct.duckdb_zstd::ldmState_t" = type { %"struct.duckdb_zstd::ZSTD_window_t", ptr, i32, ptr, [64 x i64], [64 x %"struct.duckdb_zstd::ldmMatchCandidate_t"] }
%"struct.duckdb_zstd::ZSTD_window_t" = type { ptr, ptr, ptr, i32, i32, i32 }
%"struct.duckdb_zstd::ldmMatchCandidate_t" = type { ptr, i32, i32, ptr }
%"struct.duckdb_zstd::rawSeqStore_t" = type { ptr, i64, i64, i64, i64 }
%"struct.duckdb_zstd::ZSTD_blockState_t" = type { ptr, ptr, %"struct.duckdb_zstd::ZSTD_matchState_t" }
%"struct.duckdb_zstd::ZSTD_matchState_t" = type { %"struct.duckdb_zstd::ZSTD_window_t", i32, i32, i32, i32, ptr, [8 x i32], i64, i32, ptr, ptr, ptr, i32, i32, %"struct.duckdb_zstd::optState_t", ptr, %"struct.duckdb_zstd::ZSTD_compressionParameters", ptr, i32, i32 }
%"struct.duckdb_zstd::optState_t" = type { ptr, ptr, ptr, ptr, ptr, ptr, i32, i32, i32, i32, i32, i32, i32, i32, i32, ptr, i32 }
%"struct.duckdb_zstd::ZSTD_inBuffer_s" = type { ptr, i64, i64 }
%"struct.duckdb_zstd::ZSTD_localDict" = type { ptr, ptr, i64, i32, ptr }
%"struct.duckdb_zstd::ZSTD_prefixDict_s" = type { ptr, i64, i32 }
%"struct.duckdb_zstd::ZSTD_blockSplitCtx" = type { %"struct.duckdb_zstd::seqStore_t", %"struct.duckdb_zstd::seqStore_t", %"struct.duckdb_zstd::seqStore_t", %"struct.duckdb_zstd::seqStore_t", %"struct.duckdb_zstd::seqStore_t", [196 x i32], %"struct.duckdb_zstd::ZSTD_entropyCTablesMetadata_t" }
%"struct.duckdb_zstd::ZSTD_entropyCTablesMetadata_t" = type { %"struct.duckdb_zstd::ZSTD_hufCTablesMetadata_t", %"struct.duckdb_zstd::ZSTD_fseCTablesMetadata_t" }
%"struct.duckdb_zstd::ZSTD_hufCTablesMetadata_t" = type { i32, [128 x i8], i64 }
%"struct.duckdb_zstd::ZSTD_fseCTablesMetadata_t" = type { i32, i32, i32, [133 x i8], i64, i64 }

; Function Attrs: mustprogress nounwind uwtable
define noundef i64 @_ZN11duckdb_zstd38ZSTD_CCtx_setParametersUsingCCtxParamsEPNS_11ZSTD_CCtx_sEPKNS_18ZSTD_CCtx_params_sE(ptr noundef %0, ptr noundef %1) #0 {
  %3 = alloca i64, align 8
  %4 = alloca ptr, align 8
  %5 = alloca ptr, align 8
  store ptr %0, ptr %4, align 8, !tbaa !13
  store ptr %1, ptr %5, align 8, !tbaa !96
  br label %6

6:                                                ; preds = %2
  br label %7

7:                                                ; preds = %6
  br label %8

8:                                                ; preds = %7
  %9 = load ptr, ptr %4, align 8, !tbaa !13
  %10 = getelementptr inbounds nuw %"struct.duckdb_zstd::ZSTD_CCtx_s", ptr %9, i32 0, i32 37
  %11 = load i32, ptr %10, align 8, !tbaa !122
  %12 = icmp ne i32 %11, 0
  br i1 %12, label %13, label %22

13:                                               ; preds = %8
  br label %14

14:                                               ; preds = %13
  br label %15

15:                                               ; preds = %14
  br label %16

16:                                               ; preds = %15
  br label %17

17:                                               ; preds = %16
  br label %18

18:                                               ; preds = %17
  br label %19

19:                                               ; preds = %18
  br label %20

20:                                               ; preds = %19
  br label %21

21:                                               ; preds = %20
  store i64 -60, ptr %3, align 8
  br label %43

22:                                               ; preds = %8
  br label %23

23:                                               ; preds = %22
  br label %24

24:                                               ; preds = %23
  %25 = load ptr, ptr %4, align 8, !tbaa !13
  %26 = getelementptr inbounds nuw %"struct.duckdb_zstd::ZSTD_CCtx_s", ptr %25, i32 0, i32 43
  %27 = load ptr, ptr %26, align 8, !tbaa !154
  %28 = icmp ne ptr %27, null
  br i1 %28, label %29, label %38

29:                                               ; preds = %24
  br label %30

30:                                               ; preds = %29
  br label %31

31:                                               ; preds = %30
  br label %32

32:                                               ; preds = %31
  br label %33

33:                                               ; preds = %32
  br label %34

34:                                               ; preds = %33
  br label %35

35:                                               ; preds = %34
  br label %36

36:                                               ; preds = %35
  br label %37

37:                                               ; preds = %36
  store i64 -60, ptr %3, align 8
  br label %43

38:                                               ; preds = %24
  br label %39

39:                                               ; preds = %38
  %40 = load ptr, ptr %5, align 8, !tbaa !96
  %41 = load ptr, ptr %4, align 8, !tbaa !13
  %42 = getelementptr inbounds nuw %"struct.duckdb_zstd::ZSTD_CCtx_s", ptr %41, i32 0, i32 3
  call void @llvm.memcpy.p0.p0.i64(ptr align 8 %42, ptr align 8 %40, i64 216, i1 false), !tbaa.struct !155
  store i64 0, ptr %3, align 8
  br label %43

43:                                               ; preds = %39, %37, %21
  %44 = load i64, ptr %3, align 8
  ret i64 %44
}