; Function Attrs: mustprogress nofree norecurse nosync nounwind willreturn memory(argmem: readwrite) uwtable
define noundef range(i64 -60, 1) i64 @_ZN11duckdb_zstd38ZSTD_CCtx_setParametersUsingCCtxParamsEPNS_11ZSTD_CCtx_sEPKNS_18ZSTD_CCtx_params_sE(ptr noundef captures(none) %0, ptr noundef readonly captures(none) %1) local_unnamed_addr #9 {
  %3 = getelementptr inbounds nuw i8, ptr %0, i64 3608
  %4 = load i32, ptr %3, align 8, !tbaa !99
  %.not = icmp eq i32 %4, 0
  br i1 %.not, label %5, label %10

5:                                                ; preds = %2
  %6 = getelementptr inbounds nuw i8, ptr %0, i64 3696
  %7 = load ptr, ptr %6, align 8, !tbaa !129
  %.not4 = icmp eq ptr %7, null
  br i1 %.not4, label %8, label %10

8:                                                ; preds = %5
  %9 = getelementptr inbounds nuw i8, ptr %0, i64 16
  tail call void @llvm.memcpy.p0.p0.i64(ptr noundef nonnull align 8 dereferenceable(216) %9, ptr noundef nonnull align 8 dereferenceable(216) %1, i64 216, i1 false), !tbaa.struct !130
  br label %10

10:                                               ; preds = %5, %2, %8
  %.0 = phi i64 [ 0, %8 ], [ -60, %2 ], [ -60, %5 ]
  ret i64 %.0
}